target datalayout = "e-m:e-p270:32:32-p271:32:32-p272:64:64-i64:64-i128:128-f80:128-n8:16:32:64-S128"
target triple = "x86_64-pc-linux-gnu"

%"class.std::vector" = type { %"struct.std::_Vector_base" }
%"struct.std::_Vector_base" = type { %"struct.std::_Vector_base<Type *, std::allocator<Type *>>::_Vector_impl" }
%"struct.std::_Vector_base<Type *, std::allocator<Type *>>::_Vector_impl" = type { %"struct.std::_Vector_base<Type *, std::allocator<Type *>>::_Vector_impl_data" }
%"struct.std::_Vector_base<Type *, std::allocator<Type *>>::_Vector_impl_data" = type { ptr, ptr, ptr }
%class.NonVoidTypeFilter = type { %class.Filter, ptr }
%class.Filter = type { ptr, %"class.std::bitset" }
%"class.std::bitset" = type { %"struct.std::_Base_bitset" }
%"struct.std::_Base_bitset" = type { i64 }
%class.Type = type { i32, ptr, i32, %"class.std::vector.8", %"class.std::vector.13", i32, i8, i8, i8, i8, i8, %"class.std::vector.18", %"class.std::vector.23" }
%"class.std::vector.8" = type { %"struct.std::_Vector_base.9" }
%"struct.std::_Vector_base.9" = type { %"struct.std::_Vector_base<unsigned int, std::allocator<unsigned int>>::_Vector_impl" }
%"struct.std::_Vector_base<unsigned int, std::allocator<unsigned int>>::_Vector_impl" = type { %"struct.std::_Vector_base<unsigned int, std::allocator<unsigned int>>::_Vector_impl_data" }
%"struct.std::_Vector_base<unsigned int, std::allocator<unsigned int>>::_Vector_impl_data" = type { ptr, ptr, ptr }
%"class.std::vector.13" = type { %"struct.std::_Vector_base.14" }
%"struct.std::_Vector_base.14" = type { %"struct.std::_Vector_base<const Type *, std::allocator<const Type *>>::_Vector_impl" }
%"struct.std::_Vector_base<const Type *, std::allocator<const Type *>>::_Vector_impl" = type { %"struct.std::_Vector_base<const Type *, std::allocator<const Type *>>::_Vector_impl_data" }
%"struct.std::_Vector_base<const Type *, std::allocator<const Type *>>::_Vector_impl_data" = type { ptr, ptr, ptr }
%"class.std::vector.18" = type { %"struct.std::_Vector_base.19" }
%"struct.std::_Vector_base.19" = type { %"struct.std::_Vector_base<CVQualifiers, std::allocator<CVQualifiers>>::_Vector_impl" }
%"struct.std::_Vector_base<CVQualifiers, std::allocator<CVQualifiers>>::_Vector_impl" = type { %"struct.std::_Vector_base<CVQualifiers, std::allocator<CVQualifiers>>::_Vector_impl_data" }
%"struct.std::_Vector_base<CVQualifiers, std::allocator<CVQualifiers>>::_Vector_impl_data" = type { ptr, ptr, ptr }
%"class.std::vector.23" = type { %"struct.std::_Vector_base.24" }
%"struct.std::_Vector_base.24" = type { %"struct.std::_Vector_base<int, std::allocator<int>>::_Vector_impl" }
%"struct.std::_Vector_base<int, std::allocator<int>>::_Vector_impl" = type { %"struct.std::_Vector_base<int, std::allocator<int>>::_Vector_impl_data" }
%"struct.std::_Vector_base<int, std::allocator<int>>::_Vector_impl_data" = type { ptr, ptr, ptr }
%class.NonVoidNonVolatileTypeFilter = type { %class.Filter, ptr }

@_ZL8AllTypes = internal global %"class.std::vector" zeroinitializer, align 8
@_ZN5Error8r_error_E = external global i32, align 4
@_ZN17NonVoidTypeFilterC1Ev = dso_local unnamed_addr alias void (ptr), ptr @_ZN17NonVoidTypeFilterC2Ev
@_ZN17NonVoidTypeFilterD1Ev = dso_local unnamed_addr alias void (ptr), ptr @_ZN17NonVoidTypeFilterD2Ev
@_ZN28NonVoidNonVolatileTypeFilterC1Ev = dso_local unnamed_addr alias void (ptr), ptr @_ZN28NonVoidNonVolatileTypeFilterC2Ev
@_ZN28NonVoidNonVolatileTypeFilterD1Ev = dso_local unnamed_addr alias void (ptr), ptr @_ZN28NonVoidNonVolatileTypeFilterD2Ev

; Function Attrs: mustprogress uwtable
define dso_local noundef i32 @_ZN4Type28choose_random_nonvoid_simpleEv() #5 align 2 {
  %1 = alloca i32, align 4
  %2 = call noundef ptr @_ZN13Probabilities15get_prob_filterE8ProbName(i32 noundef 76)
  %3 = call noundef i32 @_Z8rnd_uptojPK6FilterPKNSt7__cxx1112basic_stringIcSt11char_traitsIcESaIcEEE(i32 noundef 14, ptr noundef %2, ptr noundef null)
  store i32 %3, ptr %1, align 4
  %4 = load i32, ptr %1, align 4
  ret i32 %4
}

; Function Attrs: mustprogress nounwind uwtable
define dso_local noundef ptr @_ZN17NonVoidTypeFilter8get_typeEv(ptr noundef nonnull align 8 dereferenceable(24) %0) #4 align 2 {
  %2 = alloca ptr, align 8
  store ptr %0, ptr %2, align 8
  %3 = load ptr, ptr %2, align 8
  %4 = getelementptr inbounds %class.NonVoidTypeFilter, ptr %3, i32 0, i32 1
  %5 = load ptr, ptr %4, align 8
  ret ptr %5
}

; Function Attrs: mustprogress nounwind uwtable
define dso_local noundef ptr @_ZN28NonVoidNonVolatileTypeFilter8get_typeEv(ptr noundef nonnull align 8 dereferenceable(24) %0) #4 align 2 {
  %2 = alloca ptr, align 8
  store ptr %0, ptr %2, align 8
  %3 = load ptr, ptr %2, align 8
  %4 = getelementptr inbounds %class.NonVoidNonVolatileTypeFilter, ptr %3, i32 0, i32 1
  %5 = load ptr, ptr %4, align 8
  ret ptr %5
}

; Function Attrs: mustprogress nounwind uwtable
define linkonce_odr dso_local noundef i64 @_ZNKSt6vectorIP4TypeSaIS1_EE4sizeEv(ptr noundef nonnull align 8 dereferenceable(24) %0) #4 comdat align 2 {
  %2 = alloca ptr, align 8
  store ptr %0, ptr %2, align 8
  %3 = load ptr, ptr %2, align 8
  %4 = getelementptr inbounds %"struct.std::_Vector_base", ptr %3, i32 0, i32 0
  %5 = getelementptr inbounds %"struct.std::_Vector_base<Type *, std::allocator<Type *>>::_Vector_impl_data", ptr %4, i32 0, i32 1
  %6 = load ptr, ptr %5, align 8
  %7 = getelementptr inbounds %"struct.std::_Vector_base", ptr %3, i32 0, i32 0
  %8 = getelementptr inbounds %"struct.std::_Vector_base<Type *, std::allocator<Type *>>::_Vector_impl_data", ptr %7, i32 0, i32 0
  %9 = load ptr, ptr %8, align 8
  %10 = ptrtoint ptr %6 to i64
  %11 = ptrtoint ptr %9 to i64
  %12 = sub i64 %10, %11
  %13 = sdiv exact i64 %12, 8
  ret i64 %13
}

; Function Attrs: mustprogress uwtable
define dso_local noundef ptr @_ZN4Type20choose_random_simpleEv() #5 align 2 {
  %1 = alloca ptr, align 8
  %2 = alloca i32, align 4
  %3 = call noundef i32 @_ZN9DepthSpec19depth_guard_by_typeE5dTypei(i32 noundef 27, i32 noundef 0)
  %4 = icmp ne i32 %3, 0
  br i1 %4, label %5, label %6

5:                                                ; preds = %0
  store ptr null, ptr %1, align 8
  br label %14

6:                                                ; preds = %0
  %7 = call noundef i32 @_ZN4Type28choose_random_nonvoid_simpleEv()
  store i32 %7, ptr %2, align 4
  %8 = call noundef i32 @_ZN5Error9get_errorEv()
  %9 = icmp ne i32 %8, 0
  br i1 %9, label %10, label %11

10:                                               ; preds = %6
  store ptr null, ptr %1, align 8
  br label %14

11:                                               ; preds = %6
  %12 = load i32, ptr %2, align 4
  %13 = call noundef nonnull align 8 dereferenceable(136) ptr @_ZN4Type15get_simple_typeE11eSimpleType(i32 noundef %12)
  store ptr %13, ptr %1, align 8
  br label %14

14:                                               ; preds = %11, %10, %5
  %15 = load ptr, ptr %1, align 8
  ret ptr %15
}

; Function Attrs: mustprogress nounwind uwtable
define linkonce_odr dso_local noundef i32 @_ZN5Error9get_errorEv() #4 comdat align 2 {
  %1 = load i32, ptr @_ZN5Error8r_error_E, align 4
  ret i32 %1
}

; Function Attrs: mustprogress uwtable
define dso_local noundef ptr @_ZN4Type21choose_random_nonvoidEv() #5 align 2 personality ptr @__gxx_personality_v0 {
  %1 = alloca ptr, align 8
  %2 = alloca %class.NonVoidTypeFilter, align 8
  %3 = alloca ptr, align 8
  %4 = alloca i32, align 4
  %5 = alloca i32, align 4
  %6 = alloca ptr, align 8
  %7 = call noundef i32 @_ZN9DepthSpec20depth_guard_by_depthEi(i32 noundef 1)
  %8 = icmp ne i32 %7, 0
  br i1 %8, label %9, label %10

9:                                                ; preds = %0
  store ptr null, ptr %1, align 8
  br label %27

10:                                               ; preds = %0
  call void @_ZN17NonVoidTypeFilterC1Ev(ptr noundef nonnull align 8 dereferenceable(24) %2)
  %11 = call noundef i64 @_ZNKSt6vectorIP4TypeSaIS1_EE4sizeEv(ptr noundef nonnull align 8 dereferenceable(24) @_ZL8AllTypes) #3
  %12 = trunc i64 %11 to i32
  %13 = invoke noundef i32 @_Z8rnd_uptojPK6FilterPKNSt7__cxx1112basic_stringIcSt11char_traitsIcESaIcEEE(i32 noundef %12, ptr noundef %2, ptr noundef null)
          to label %14 unwind label %19

14:                                               ; preds = %10
  %15 = invoke noundef i32 @_ZN5Error9get_errorEv()
          to label %16 unwind label %19

16:                                               ; preds = %14
  %17 = icmp ne i32 %15, 0
  br i1 %17, label %18, label %23

18:                                               ; preds = %16
  store ptr null, ptr %1, align 8
  store i32 1, ptr %5, align 4
  br label %26

19:                                               ; preds = %14, %10
  %20 = landingpad { ptr, i32 }
          cleanup
  %21 = extractvalue { ptr, i32 } %20, 0
  store ptr %21, ptr %3, align 8
  %22 = extractvalue { ptr, i32 } %20, 1
  store i32 %22, ptr %4, align 4
  call void @_ZN17NonVoidTypeFilterD1Ev(ptr noundef nonnull align 8 dereferenceable(24) %2) #3
  br label %29

23:                                               ; preds = %16
  %24 = call noundef ptr @_ZN17NonVoidTypeFilter8get_typeEv(ptr noundef nonnull align 8 dereferenceable(24) %2)
  store ptr %24, ptr %6, align 8
  %25 = load ptr, ptr %6, align 8
  store ptr %25, ptr %1, align 8
  store i32 1, ptr %5, align 4
  br label %26

26:                                               ; preds = %23, %18
  call void @_ZN17NonVoidTypeFilterD1Ev(ptr noundef nonnull align 8 dereferenceable(24) %2) #3
  br label %27

27:                                               ; preds = %26, %9
  %28 = load ptr, ptr %1, align 8
  ret ptr %28

29:                                               ; preds = %19
  %30 = load ptr, ptr %3, align 8
  %31 = load i32, ptr %4, align 4
  %32 = insertvalue { ptr, i32 } poison, ptr %30, 0
  %33 = insertvalue { ptr, i32 } %32, i32 %31, 1
  resume { ptr, i32 } %33
}

; Function Attrs: mustprogress uwtable
define dso_local noundef ptr @_ZN4Type33choose_random_nonvoid_nonvolatileEv() #5 align 2 personality ptr @__gxx_personality_v0 {
  %1 = alloca ptr, align 8
  %2 = alloca %class.NonVoidNonVolatileTypeFilter, align 8
  %3 = alloca ptr, align 8
  %4 = alloca i32, align 4
  %5 = alloca i32, align 4
  %6 = alloca ptr, align 8
  %7 = call noundef i32 @_ZN9DepthSpec20depth_guard_by_depthEi(i32 noundef 1)
  %8 = icmp ne i32 %7, 0
  br i1 %8, label %9, label %10

9:                                                ; preds = %0
  store ptr null, ptr %1, align 8
  br label %27

10:                                               ; preds = %0
  call void @_ZN28NonVoidNonVolatileTypeFilterC1Ev(ptr noundef nonnull align 8 dereferenceable(24) %2)
  %11 = call noundef i64 @_ZNKSt6vectorIP4TypeSaIS1_EE4sizeEv(ptr noundef nonnull align 8 dereferenceable(24) @_ZL8AllTypes) #3
  %12 = trunc i64 %11 to i32
  %13 = invoke noundef i32 @_Z8rnd_uptojPK6FilterPKNSt7__cxx1112basic_stringIcSt11char_traitsIcESaIcEEE(i32 noundef %12, ptr noundef %2, ptr noundef null)
          to label %14 unwind label %19

14:                                               ; preds = %10
  %15 = invoke noundef i32 @_ZN5Error9get_errorEv()
          to label %16 unwind label %19

16:                                               ; preds = %14
  %17 = icmp ne i32 %15, 0
  br i1 %17, label %18, label %23

18:                                               ; preds = %16
  store ptr null, ptr %1, align 8
  store i32 1, ptr %5, align 4
  br label %26

19:                                               ; preds = %14, %10
  %20 = landingpad { ptr, i32 }
          cleanup
  %21 = extractvalue { ptr, i32 } %20, 0
  store ptr %21, ptr %3, align 8
  %22 = extractvalue { ptr, i32 } %20, 1
  store i32 %22, ptr %4, align 4
  call void @_ZN28NonVoidNonVolatileTypeFilterD1Ev(ptr noundef nonnull align 8 dereferenceable(24) %2) #3
  br label %29

23:                                               ; preds = %16
  %24 = call noundef ptr @_ZN28NonVoidNonVolatileTypeFilter8get_typeEv(ptr noundef nonnull align 8 dereferenceable(24) %2)
  store ptr %24, ptr %6, align 8
  %25 = load ptr, ptr %6, align 8
  store ptr %25, ptr %1, align 8
  store i32 1, ptr %5, align 4
  br label %26

26:                                               ; preds = %23, %18
  call void @_ZN28NonVoidNonVolatileTypeFilterD1Ev(ptr noundef nonnull align 8 dereferenceable(24) %2) #3
  br label %27

27:                                               ; preds = %26, %9
  %28 = load ptr, ptr %1, align 8
  ret ptr %28

29:                                               ; preds = %19
  %30 = load ptr, ptr %3, align 8
  %31 = load i32, ptr %4, align 4
  %32 = insertvalue { ptr, i32 } poison, ptr %30, 0
  %33 = insertvalue { ptr, i32 } %32, i32 %31, 1
  resume { ptr, i32 } %33
}

; Function Attrs: mustprogress uwtable
define dso_local noundef ptr @_ZN4Type21random_type_from_typeEPKS_bb(ptr noundef %0, i1 noundef zeroext %1, i1 noundef zeroext %2) #5 align 2 {
  %4 = alloca ptr, align 8
  %5 = alloca ptr, align 8
  %6 = alloca i8, align 1
  %7 = alloca i8, align 1
  %8 = alloca ptr, align 8
  store ptr %0, ptr %5, align 8
  %9 = zext i1 %1 to i8
  store i8 %9, ptr %6, align 1
  %10 = zext i1 %2 to i8
  store i8 %10, ptr %7, align 1
  %11 = load ptr, ptr %5, align 8
  store ptr %11, ptr %8, align 8
  %12 = call noundef i32 @_ZN9DepthSpec19depth_guard_by_typeE5dTypei(i32 noundef 24, i32 noundef 0)
  %13 = icmp ne i32 %12, 0
  br i1 %13, label %14, label %15

14:                                               ; preds = %3
  store ptr null, ptr %4, align 8
  br label %53

15:                                               ; preds = %3
  %16 = load ptr, ptr %5, align 8
  %17 = icmp eq ptr %16, null
  br i1 %17, label %18, label %31

18:                                               ; preds = %15
  %19 = load i8, ptr %6, align 1
  %20 = trunc i8 %19 to i1
  br i1 %20, label %21, label %23

21:                                               ; preds = %18
  %22 = call noundef ptr @_ZN4Type33choose_random_nonvoid_nonvolatileEv()
  br label %25

23:                                               ; preds = %18
  %24 = call noundef ptr @_ZN4Type21choose_random_nonvoidEv()
  br label %25

25:                                               ; preds = %23, %21
  %26 = phi ptr [ %22, %21 ], [ %24, %23 ]
  store ptr %26, ptr %8, align 8
  %27 = call noundef i32 @_ZN5Error9get_errorEv()
  %28 = icmp ne i32 %27, 0
  br i1 %28, label %29, label %30

29:                                               ; preds = %25
  store ptr null, ptr %4, align 8
  br label %53

30:                                               ; preds = %25
  br label %31

31:                                               ; preds = %30, %15
  %32 = load ptr, ptr %5, align 8
  %33 = getelementptr inbounds %class.Type, ptr %32, i32 0, i32 0
  %34 = load i32, ptr %33, align 8
  %35 = icmp eq i32 %34, 0
  br i1 %35, label %36, label %45

36:                                               ; preds = %31
  %37 = load i8, ptr %7, align 1
  %38 = trunc i8 %37 to i1
  br i1 %38, label %45, label %39

39:                                               ; preds = %36
  %40 = call noundef ptr @_ZN4Type20choose_random_simpleEv()
  store ptr %40, ptr %8, align 8
  %41 = call noundef i32 @_ZN5Error9get_errorEv()
  %42 = icmp ne i32 %41, 0
  br i1 %42, label %43, label %44

43:                                               ; preds = %39
  store ptr null, ptr %4, align 8
  br label %53

44:                                               ; preds = %39
  br label %45

45:                                               ; preds = %44, %36, %31
  %46 = load ptr, ptr %8, align 8
  %47 = getelementptr inbounds %class.Type, ptr %46, i32 0, i32 0
  %48 = load i32, ptr %47, align 8
  %49 = icmp eq i32 %48, 0
  br i1 %49, label %50, label %51

50:                                               ; preds = %45
  br label %51

51:                                               ; preds = %50, %45
  %52 = load ptr, ptr %8, align 8
  store ptr %52, ptr %4, align 8
  br label %53

53:                                               ; preds = %51, %43, %29, %14
  %54 = load ptr, ptr %4, align 8
  ret ptr %54
}