; Function Attrs: mustprogress uwtable
define dso_local noundef ptr @_ZN4Type21random_type_from_typeEPKS_bb(ptr noundef readonly %0, i1 noundef zeroext %1, i1 noundef zeroext %2) local_unnamed_addr #4 align 2 personality ptr @__gxx_personality_v0 {
  %4 = alloca %class.NonVoidTypeFilter, align 8
  %5 = alloca %class.NonVoidNonVolatileTypeFilter, align 8
  %6 = tail call noundef i32 @_ZN9DepthSpec19depth_guard_by_typeE5dTypei(i32 noundef 24, i32 noundef 0)
  %.not = icmp eq i32 %6, 0
  br i1 %.not, label %7, label %59

7:                                                ; preds = %3
  %8 = icmp eq ptr %0, null
  br i1 %8, label %9, label %47

9:                                                ; preds = %7
  br i1 %1, label %10, label %27

10:                                               ; preds = %9
  call void @llvm.lifetime.start.p0(i64 24, ptr nonnull %5)
  %11 = tail call noundef i32 @_ZN9DepthSpec20depth_guard_by_depthEi(i32 noundef 1)
  %.not.i = icmp eq i32 %11, 0
  br i1 %.not.i, label %12, label %_ZN4Type33choose_random_nonvoid_nonvolatileEv.exit

12:                                               ; preds = %10
  call void @_ZN6FilterC2Ev(ptr noundef nonnull align 8 dereferenceable(16) %5)
  store ptr getelementptr inbounds ({ [5 x ptr] }, ptr @_ZTV28NonVoidNonVolatileTypeFilter, i64 0, i32 0, i64 2), ptr %5, align 8
  %13 = getelementptr inbounds i8, ptr %5, i64 16
  store ptr null, ptr %13, align 8
  %14 = load ptr, ptr getelementptr inbounds (%"class.std::vector", ptr @_ZL8AllTypes, i64 0, i32 0, i32 0, i32 0, i32 1), align 8
  %15 = load ptr, ptr @_ZL8AllTypes, align 8
  %16 = ptrtoint ptr %14 to i64
  %17 = ptrtoint ptr %15 to i64
  %18 = sub i64 %16, %17
  %19 = lshr exact i64 %18, 3
  %20 = trunc i64 %19 to i32
  %21 = invoke noundef i32 @_Z8rnd_uptojPK6FilterPKNSt7__cxx1112basic_stringIcSt11char_traitsIcESaIcEEE(i32 noundef %20, ptr noundef nonnull %5, ptr noundef null)
          to label %22 unwind label %25

22:                                               ; preds = %12
  %23 = load i32, ptr @_ZN5Error8r_error_E, align 4
  %.not3.i = icmp eq i32 %23, 0
  %24 = load ptr, ptr %13, align 8
  %spec.select.i = select i1 %.not3.i, ptr %24, ptr null
  call void @_ZN6FilterD2Ev(ptr noundef nonnull align 8 dereferenceable(16) %5) #23
  br label %_ZN4Type33choose_random_nonvoid_nonvolatileEv.exit

common.resume:                                    ; preds = %42, %25
  %.sink = phi ptr [ %4, %42 ], [ %5, %25 ]
  %common.resume.op = phi { ptr, i32 } [ %43, %42 ], [ %26, %25 ]
  call void @_ZN6FilterD2Ev(ptr noundef nonnull align 8 dereferenceable(16) %.sink) #23
  resume { ptr, i32 } %common.resume.op

25:                                               ; preds = %12
  %26 = landingpad { ptr, i32 }
          cleanup
  br label %common.resume

_ZN4Type33choose_random_nonvoid_nonvolatileEv.exit: ; preds = %10, %22
  %.1.i = phi ptr [ %spec.select.i, %22 ], [ null, %10 ]
  call void @llvm.lifetime.end.p0(i64 24, ptr nonnull %5)
  br label %44

27:                                               ; preds = %9
  call void @llvm.lifetime.start.p0(i64 24, ptr nonnull %4)
  %28 = tail call noundef i32 @_ZN9DepthSpec20depth_guard_by_depthEi(i32 noundef 1)
  %.not.i12 = icmp eq i32 %28, 0
  br i1 %.not.i12, label %29, label %_ZN4Type21choose_random_nonvoidEv.exit

29:                                               ; preds = %27
  call void @_ZN6FilterC2Ev(ptr noundef nonnull align 8 dereferenceable(16) %4)
  store ptr getelementptr inbounds ({ [5 x ptr] }, ptr @_ZTV17NonVoidTypeFilter, i64 0, i32 0, i64 2), ptr %4, align 8
  %30 = getelementptr inbounds i8, ptr %4, i64 16
  store ptr null, ptr %30, align 8
  %31 = load ptr, ptr getelementptr inbounds (%"class.std::vector", ptr @_ZL8AllTypes, i64 0, i32 0, i32 0, i32 0, i32 1), align 8
  %32 = load ptr, ptr @_ZL8AllTypes, align 8
  %33 = ptrtoint ptr %31 to i64
  %34 = ptrtoint ptr %32 to i64
  %35 = sub i64 %33, %34
  %36 = lshr exact i64 %35, 3
  %37 = trunc i64 %36 to i32
  %38 = invoke noundef i32 @_Z8rnd_uptojPK6FilterPKNSt7__cxx1112basic_stringIcSt11char_traitsIcESaIcEEE(i32 noundef %37, ptr noundef nonnull %4, ptr noundef null)
          to label %39 unwind label %42

39:                                               ; preds = %29
  %40 = load i32, ptr @_ZN5Error8r_error_E, align 4
  %.not3.i14 = icmp eq i32 %40, 0
  %41 = load ptr, ptr %30, align 8
  %spec.select.i15 = select i1 %.not3.i14, ptr %41, ptr null
  call void @_ZN6FilterD2Ev(ptr noundef nonnull align 8 dereferenceable(16) %4) #23
  br label %_ZN4Type21choose_random_nonvoidEv.exit

42:                                               ; preds = %29
  %43 = landingpad { ptr, i32 }
          cleanup
  br label %common.resume

_ZN4Type21choose_random_nonvoidEv.exit:           ; preds = %27, %39
  %.1.i13 = phi ptr [ %spec.select.i15, %39 ], [ null, %27 ]
  call void @llvm.lifetime.end.p0(i64 24, ptr nonnull %4)
  br label %44

44:                                               ; preds = %_ZN4Type21choose_random_nonvoidEv.exit, %_ZN4Type33choose_random_nonvoid_nonvolatileEv.exit
  %45 = phi ptr [ %.1.i, %_ZN4Type33choose_random_nonvoid_nonvolatileEv.exit ], [ %.1.i13, %_ZN4Type21choose_random_nonvoidEv.exit ]
  %46 = load i32, ptr @_ZN5Error8r_error_E, align 4
  %.not9 = icmp eq i32 %46, 0
  br i1 %.not9, label %47, label %59

47:                                               ; preds = %44, %7
  %.0 = phi ptr [ %45, %44 ], [ %0, %7 ]
  %48 = load i32, ptr %0, align 8
  %49 = icmp ne i32 %48, 0
  %brmerge = or i1 %49, %2
  br i1 %brmerge, label %59, label %50

50:                                               ; preds = %47
  %51 = call noundef i32 @_ZN9DepthSpec19depth_guard_by_typeE5dTypei(i32 noundef 27, i32 noundef 0)
  %.not.i16 = icmp eq i32 %51, 0
  br i1 %.not.i16, label %52, label %_ZN4Type20choose_random_simpleEv.exit

52:                                               ; preds = %50
  %53 = call noundef ptr @_ZN13Probabilities15get_prob_filterE8ProbName(i32 noundef 76)
  %54 = call noundef i32 @_Z8rnd_uptojPK6FilterPKNSt7__cxx1112basic_stringIcSt11char_traitsIcESaIcEEE(i32 noundef 14, ptr noundef %53, ptr noundef null)
  %55 = load i32, ptr @_ZN5Error8r_error_E, align 4
  %.not1.i = icmp eq i32 %55, 0
  br i1 %.not1.i, label %56, label %_ZN4Type20choose_random_simpleEv.exit

56:                                               ; preds = %52
  %57 = call noundef nonnull align 8 dereferenceable(136) ptr @_ZN4Type15get_simple_typeE11eSimpleType(i32 noundef %54)
  br label %_ZN4Type20choose_random_simpleEv.exit

_ZN4Type20choose_random_simpleEv.exit:            ; preds = %50, %52, %56
  %.0.i = phi ptr [ %57, %56 ], [ null, %50 ], [ null, %52 ]
  %58 = load i32, ptr @_ZN5Error8r_error_E, align 4
  %.not10 = icmp eq i32 %58, 0
  %spec.select = select i1 %.not10, ptr %.0.i, ptr null
  br label %59

59:                                               ; preds = %_ZN4Type20choose_random_simpleEv.exit, %47, %44, %3
  %.07 = phi ptr [ null, %3 ], [ null, %44 ], [ %.0, %47 ], [ %spec.select, %_ZN4Type20choose_random_simpleEv.exit ]
  ret ptr %.07
}